; Function Attrs: nounwind uwtable
define internal fastcc void @_dump_listpids(ptr noundef %0, i32 noundef %1, ptr noundef %2) unnamed_addr #0 {
  %4 = alloca %struct.openapi_resp_listpids_info_t, align 8
  %5 = alloca %struct.data_parser_dump_cli_ctxt_t, align 8
  call void @llvm.lifetime.start.p0(i64 32, ptr nonnull %4) #16
  %6 = getelementptr inbounds nuw i8, ptr %4, i64 24
  store ptr %0, ptr %6, align 8
  call void @llvm.lifetime.start.p0(i64 32, ptr nonnull %5) #16
  store i32 463606195, ptr %5, align 8
  %7 = getelementptr inbounds nuw i8, ptr %5, i64 4
  %8 = getelementptr inbounds nuw i8, ptr %5, i64 8
  %9 = getelementptr inbounds nuw i8, ptr %5, i64 16
  %10 = getelementptr inbounds nuw i8, ptr %5, i64 24
  store i32 0, ptr %7, align 4
  %11 = load ptr, ptr @data_parser, align 8
  store ptr %11, ptr %10, align 8
  %12 = load ptr, ptr @mime_type, align 8
  %13 = tail call ptr @data_parser_cli_meta(i32 noundef %1, ptr noundef %2, ptr noundef %12) #16
  store ptr %13, ptr %4, align 8
  %14 = getelementptr inbounds nuw i8, ptr %4, i64 8
  %15 = tail call ptr @list_create(ptr noundef nonnull @free_openapi_resp_error) #16
  store ptr %15, ptr %14, align 8
  store ptr %15, ptr %8, align 8
  %16 = getelementptr inbounds nuw i8, ptr %4, i64 16
  %17 = tail call ptr @list_create(ptr noundef nonnull @free_openapi_resp_warning) #16
  store ptr %17, ptr %16, align 8
  store ptr %17, ptr %9, align 8
  %18 = load ptr, ptr @mime_type, align 8
  %19 = load ptr, ptr @data_parser, align 8
  %20 = call i32 @data_parser_dump_cli_stdout(i32 noundef 373, ptr noundef nonnull %4, i32 noundef 32, ptr noundef null, ptr noundef %18, ptr noundef %19, ptr noundef nonnull %5, ptr noundef %13) #16
  %21 = load ptr, ptr %16, align 8
  %.not18 = icmp eq ptr %21, null
  br i1 %.not18, label %23, label %22

22:                                               ; preds = %3
  call void @list_destroy(ptr noundef nonnull %21) #16
  br label %23

23:                                               ; preds = %22, %3
  store ptr null, ptr %16, align 8
  %24 = load ptr, ptr %14, align 8
  %.not19 = icmp eq ptr %24, null
  br i1 %.not19, label %26, label %25

25:                                               ; preds = %23
  call void @list_destroy(ptr noundef nonnull %24) #16
  br label %26

26:                                               ; preds = %25, %23
  store ptr null, ptr %14, align 8
  %27 = load ptr, ptr %4, align 8
  call void @free_openapi_resp_meta(ptr noundef %27) #16
  call void @llvm.lifetime.end.p0(i64 32, ptr nonnull %5) #16
  %.not20 = icmp eq i32 %20, 0
  br i1 %.not20, label %29, label %28

28:                                               ; preds = %26
  store i32 1, ptr @exit_code, align 4
  br label %29

29:                                               ; preds = %28, %26
  call void @llvm.lifetime.end.p0(i64 32, ptr nonnull %4) #16
  ret void
}